; Function Attrs: mustprogress uwtable
define dso_local void @_ZN16DefaultOutputMgr20RandomOutputFuncDefsEv(ptr noundef nonnull readonly align 8 captures(none) dereferenceable(40) %0) local_unnamed_addr #5 align 2 {
  %2 = tail call noundef nonnull align 8 dereferenceable(24) ptr @_Z17get_all_functionsv()
  %3 = getelementptr inbounds nuw i8, ptr %0, i64 8
  %4 = load ptr, ptr %2, align 8, !tbaa !83
  %5 = getelementptr inbounds nuw i8, ptr %2, i64 8
  %6 = load ptr, ptr %5, align 8, !tbaa !83
  %.not8 = icmp eq ptr %4, %6
  br i1 %.not8, label %._crit_edge, label %.lr.ph

.lr.ph:                                           ; preds = %1
  %7 = getelementptr inbounds nuw i8, ptr %0, i64 16
  %8 = load ptr, ptr %7, align 8, !tbaa !27
  %9 = ptrtoint ptr %8 to i64
  %10 = load ptr, ptr %3, align 8, !tbaa !30
  %11 = ptrtoint ptr %10 to i64
  %12 = sub i64 %9, %11
  %13 = lshr exact i64 %12, 3
  %14 = trunc i64 %13 to i32
  br label %15

15:                                               ; preds = %.lr.ph, %28
  %16 = phi ptr [ %6, %.lr.ph ], [ %29, %28 ]
  %.sroa.04.09 = phi ptr [ %4, %.lr.ph ], [ %30, %28 ]
  %17 = load ptr, ptr %.sroa.04.09, align 8, !tbaa !85
  %18 = getelementptr inbounds nuw i8, ptr %17, i64 267
  %19 = load i8, ptr %18, align 1, !tbaa !87, !range !107, !noundef !108
  %20 = trunc nuw i8 %19 to i1
  br i1 %20, label %28, label %21

21:                                               ; preds = %15
  %22 = tail call noundef i32 @_Z13pure_rnd_uptojPK6FilterPKNSt7__cxx1112basic_stringIcSt11char_traitsIcESaIcEEE(i32 noundef %14, ptr noundef null, ptr noundef null)
  %23 = load ptr, ptr %.sroa.04.09, align 8, !tbaa !85
  %24 = sext i32 %22 to i64
  %25 = load ptr, ptr %3, align 8, !tbaa !30
  %26 = getelementptr inbounds nuw ptr, ptr %25, i64 %24
  %27 = load ptr, ptr %26, align 8, !tbaa !29
  tail call void @_ZN8Function6OutputERSo(ptr noundef nonnull align 8 dereferenceable(424) %23, ptr noundef nonnull align 8 dereferenceable(8) %27)
  %.pre = load ptr, ptr %5, align 8, !tbaa !83
  br label %28

28:                                               ; preds = %15, %21
  %29 = phi ptr [ %16, %15 ], [ %.pre, %21 ]
  %30 = getelementptr inbounds nuw i8, ptr %.sroa.04.09, i64 8
  %.not = icmp eq ptr %30, %29
  br i1 %.not, label %._crit_edge, label %15, !llvm.loop !109

._crit_edge:                                      ; preds = %28, %1
  ret void
}